target datalayout = "e-m:e-p270:32:32-p271:32:32-p272:64:64-i64:64-i128:128-f80:128-n8:16:32:64-S128"
target triple = "x86_64-pc-linux-gnu"

%struct.srun_job = type { %struct.slurm_step_id_msg, i32, i32, ptr, i32, i32, i32, i32, ptr, ptr, ptr, ptr, i32, i32, i32, i16, i16, i16, i16, i32, %union.pthread_mutex_t, %union.pthread_cond_t, i32, ptr, ptr, ptr, ptr, ptr, ptr, i32, i16, i16, i16, ptr, ptr, ptr, ptr, i32, ptr, i32, ptr }
%struct.slurm_step_id_msg = type { i64, i32, i32, i32 }
%union.pthread_mutex_t = type { %struct.__pthread_mutex_s }
%struct.__pthread_mutex_s = type { i32, i32, i32, i32, i32, i16, i16, %struct.__pthread_internal_list }
%struct.__pthread_internal_list = type { ptr, ptr }
%union.pthread_cond_t = type { %struct.__pthread_cond_s }
%struct.__pthread_cond_s = type { %union.__atomic_wide_counter, %union.__atomic_wide_counter, [2 x i32], [2 x i32], i32, i32, [2 x i32] }
%union.__atomic_wide_counter = type { i64 }
%struct.sockaddr_storage = type { i16, [118 x i8], i64 }
%union.pthread_attr_t = type { i64, [48 x i8] }

@.str.2 = private unnamed_addr constant [25 x i8] c"init_msg_engine_port: %m\00", align 1
@.str.3 = private unnamed_addr constant [26 x i8] c"slurm_get_stream_addr: %m\00", align 1
@.str.4 = private unnamed_addr constant [33 x i8] c"initialized job control port %hu\00", align 1
@.str.5 = private unnamed_addr constant [22 x i8] c"pthread_attr_init: %m\00", align 1
@.str.6 = private unnamed_addr constant [26 x i8] c"pthread_attr_setscope: %m\00", align 1
@.str.7 = private unnamed_addr constant [30 x i8] c"pthread_attr_setstacksize: %m\00", align 1
@.str.8 = private unnamed_addr constant [35 x i8] c"%s: pthread_attr_setdetachstate %m\00", align 1
@__func__.pty_thread_create = private unnamed_addr constant [18 x i8] c"pty_thread_create\00", align 1
@.str.9 = private unnamed_addr constant [28 x i8] c"%s: pthread_create error %m\00", align 1
@.str.10 = private unnamed_addr constant [55 x i8] c"pthread_attr_destroy failed, possible memory leak!: %m\00", align 1

; Function Attrs: nounwind uwtable
define dso_local void @pty_thread_create(ptr noundef %0) #0 {
  %2 = alloca ptr, align 8
  %3 = alloca %struct.sockaddr_storage, align 8
  %4 = alloca ptr, align 8
  %5 = alloca i32, align 4
  %6 = alloca i64, align 8
  %7 = alloca %union.pthread_attr_t, align 8
  %8 = alloca i32, align 4
  %9 = alloca i32, align 4
  %10 = alloca i32, align 4
  store ptr %0, ptr %2, align 8
  call void @llvm.lifetime.start.p0(i64 128, ptr %3) #8
  call void @llvm.lifetime.start.p0(i64 8, ptr %4) #8
  %11 = call ptr @slurm_get_srun_port_range()
  store ptr %11, ptr %4, align 8
  %12 = icmp ne ptr %11, null
  br i1 %12, label %13, label %18

13:                                               ; preds = %1
  %14 = load ptr, ptr %4, align 8
  %15 = call i32 @slurm_init_msg_engine_ports(ptr noundef %14)
  %16 = load ptr, ptr %2, align 8
  %17 = getelementptr inbounds nuw %struct.srun_job, ptr %16, i32 0, i32 29
  store i32 %15, ptr %17, align 8
  br label %22

18:                                               ; preds = %1
  %19 = call i32 @slurm_init_msg_engine_port(i16 noundef zeroext 0)
  %20 = load ptr, ptr %2, align 8
  %21 = getelementptr inbounds nuw %struct.srun_job, ptr %20, i32 0, i32 29
  store i32 %19, ptr %21, align 8
  br label %22

22:                                               ; preds = %18, %13
  %23 = load ptr, ptr %2, align 8
  %24 = getelementptr inbounds nuw %struct.srun_job, ptr %23, i32 0, i32 29
  %25 = load i32, ptr %24, align 8
  %26 = icmp slt i32 %25, 0
  br i1 %26, label %27, label %29

27:                                               ; preds = %22
  %28 = call i32 (ptr, ...) @error(ptr noundef @.str.2)
  store i32 1, ptr %5, align 4
  br label %110

29:                                               ; preds = %22
  %30 = load ptr, ptr %2, align 8
  %31 = getelementptr inbounds nuw %struct.srun_job, ptr %30, i32 0, i32 29
  %32 = load i32, ptr %31, align 8
  %33 = call i32 @slurm_get_stream_addr(i32 noundef %32, ptr noundef %3)
  %34 = icmp slt i32 %33, 0
  br i1 %34, label %35, label %37

35:                                               ; preds = %29
  %36 = call i32 (ptr, ...) @error(ptr noundef @.str.3)
  store i32 1, ptr %5, align 4
  br label %110

37:                                               ; preds = %29
  %38 = call zeroext i16 @slurm_get_port(ptr noundef %3)
  %39 = load ptr, ptr %2, align 8
  %40 = getelementptr inbounds nuw %struct.srun_job, ptr %39, i32 0, i32 30
  store i16 %38, ptr %40, align 4
  br label %41

41:                                               ; preds = %37
  br label %42

42:                                               ; preds = %41
  %43 = call i32 @get_log_level()
  %44 = icmp sge i32 %43, 6
  br i1 %44, label %45, label %50

45:                                               ; preds = %42
  %46 = load ptr, ptr %2, align 8
  %47 = getelementptr inbounds nuw %struct.srun_job, ptr %46, i32 0, i32 30
  %48 = load i16, ptr %47, align 4
  %49 = zext i16 %48 to i32
  call void (i32, ptr, ...) @log_var(i32 noundef 6, ptr noundef @.str.4, i32 noundef %49)
  br label %50

50:                                               ; preds = %45, %42
  br label %51

51:                                               ; preds = %50
  br label %52

52:                                               ; preds = %51
  br label %53

53:                                               ; preds = %52
  br label %54

54:                                               ; preds = %53
  br label %55

55:                                               ; preds = %54
  call void @llvm.lifetime.start.p0(i64 8, ptr %6) #8
  call void @llvm.lifetime.start.p0(i64 56, ptr %7) #8
  call void @llvm.lifetime.start.p0(i64 4, ptr %8) #8
  br label %56

56:                                               ; preds = %55
  call void @llvm.lifetime.start.p0(i64 4, ptr %9) #8
  %57 = call i32 @pthread_attr_init(ptr noundef %7) #8
  store i32 %57, ptr %9, align 4
  %58 = load i32, ptr %9, align 4
  %59 = icmp ne i32 %58, 0
  br i1 %59, label %60, label %63

60:                                               ; preds = %56
  %61 = load i32, ptr %9, align 4
  %62 = call ptr @__errno_location() #9
  store i32 %61, ptr %62, align 4
  call void (ptr, ...) @fatal(ptr noundef @.str.5) #10
  unreachable

63:                                               ; preds = %56
  %64 = call i32 @pthread_attr_setscope(ptr noundef %7, i32 noundef 0) #8
  store i32 %64, ptr %9, align 4
  %65 = load i32, ptr %9, align 4
  %66 = icmp ne i32 %65, 0
  br i1 %66, label %67, label %71

67:                                               ; preds = %63
  %68 = load i32, ptr %9, align 4
  %69 = call ptr @__errno_location() #9
  store i32 %68, ptr %69, align 4
  %70 = call i32 (ptr, ...) @error(ptr noundef @.str.6)
  br label %71

71:                                               ; preds = %67, %63
  %72 = call i32 @pthread_attr_setstacksize(ptr noundef %7, i64 noundef 1048576) #8
  store i32 %72, ptr %9, align 4
  %73 = load i32, ptr %9, align 4
  %74 = icmp ne i32 %73, 0
  br i1 %74, label %75, label %79

75:                                               ; preds = %71
  %76 = load i32, ptr %9, align 4
  %77 = call ptr @__errno_location() #9
  store i32 %76, ptr %77, align 4
  %78 = call i32 (ptr, ...) @error(ptr noundef @.str.7)
  br label %79

79:                                               ; preds = %75, %71
  call void @llvm.lifetime.end.p0(i64 4, ptr %9) #8
  br label %80

80:                                               ; preds = %79
  br label %81

81:                                               ; preds = %80
  %82 = call i32 @pthread_attr_setdetachstate(ptr noundef %7, i32 noundef 1) #8
  store i32 %82, ptr %8, align 4
  %83 = load i32, ptr %8, align 4
  %84 = icmp ne i32 %83, 0
  br i1 %84, label %85, label %88

85:                                               ; preds = %81
  %86 = load i32, ptr %8, align 4
  %87 = call ptr @__errno_location() #9
  store i32 %86, ptr %87, align 4
  call void (ptr, ...) @fatal(ptr noundef @.str.8, ptr noundef @__func__.pty_thread_create) #10
  unreachable

88:                                               ; preds = %81
  %89 = load ptr, ptr %2, align 8
  %90 = call i32 @pthread_create(ptr noundef %6, ptr noundef %7, ptr noundef @_pty_thread, ptr noundef %89) #8
  store i32 %90, ptr %8, align 4
  %91 = load i32, ptr %8, align 4
  %92 = icmp ne i32 %91, 0
  br i1 %92, label %93, label %96

93:                                               ; preds = %88
  %94 = load i32, ptr %8, align 4
  %95 = call ptr @__errno_location() #9
  store i32 %94, ptr %95, align 4
  call void (ptr, ...) @fatal(ptr noundef @.str.9, ptr noundef @__func__.pty_thread_create) #10
  unreachable

96:                                               ; preds = %88
  br label %97

97:                                               ; preds = %96
  call void @llvm.lifetime.start.p0(i64 4, ptr %10) #8
  %98 = call i32 @pthread_attr_destroy(ptr noundef %7) #8
  store i32 %98, ptr %10, align 4
  %99 = load i32, ptr %10, align 4
  %100 = icmp ne i32 %99, 0
  br i1 %100, label %101, label %105

101:                                              ; preds = %97
  %102 = load i32, ptr %10, align 4
  %103 = call ptr @__errno_location() #9
  store i32 %102, ptr %103, align 4
  %104 = call i32 (ptr, ...) @error(ptr noundef @.str.10)
  br label %105

105:                                              ; preds = %101, %97
  call void @llvm.lifetime.end.p0(i64 4, ptr %10) #8
  br label %106

106:                                              ; preds = %105
  br label %107

107:                                              ; preds = %106
  call void @llvm.lifetime.end.p0(i64 4, ptr %8) #8
  call void @llvm.lifetime.end.p0(i64 56, ptr %7) #8
  call void @llvm.lifetime.end.p0(i64 8, ptr %6) #8
  br label %108

108:                                              ; preds = %107
  br label %109

109:                                              ; preds = %108
  store i32 0, ptr %5, align 4
  br label %110

110:                                              ; preds = %109, %35, %27
  call void @llvm.lifetime.end.p0(i64 8, ptr %4) #8
  call void @llvm.lifetime.end.p0(i64 128, ptr %3) #8
  %111 = load i32, ptr %5, align 4
  switch i32 %111, label %113 [
    i32 0, label %112
    i32 1, label %112
  ]

112:                                              ; preds = %110, %110
  ret void

113:                                              ; preds = %110
  unreachable
}