; Function Attrs: nounwind uwtable
define dso_local void @pty_thread_create(ptr noundef initializes((256, 260)) %0) local_unnamed_addr #0 {
  %2 = alloca %struct.sockaddr_storage, align 8
  %3 = alloca i64, align 8
  %4 = alloca %union.pthread_attr_t, align 8
  call void @llvm.lifetime.start.p0(i64 128, ptr nonnull %2) #7
  %5 = tail call ptr @slurm_get_srun_port_range() #7
  %.not = icmp eq ptr %5, null
  br i1 %.not, label %8, label %6

6:                                                ; preds = %1
  %7 = tail call i32 @slurm_init_msg_engine_ports(ptr noundef nonnull %5) #7
  br label %10

8:                                                ; preds = %1
  %9 = tail call i32 @slurm_init_msg_engine_port(i16 noundef zeroext 0) #7
  br label %10

10:                                               ; preds = %8, %6
  %.sink = phi i32 [ %9, %8 ], [ %7, %6 ]
  %11 = getelementptr inbounds nuw i8, ptr %0, i64 256
  store i32 %.sink, ptr %11, align 8
  %12 = icmp slt i32 %.sink, 0
  br i1 %12, label %13, label %15

13:                                               ; preds = %10
  %14 = tail call i32 (ptr, ...) @error(ptr noundef nonnull @.str.2) #7
  br label %56

15:                                               ; preds = %10
  %16 = call i32 @slurm_get_stream_addr(i32 noundef %.sink, ptr noundef nonnull %2) #7
  %17 = icmp slt i32 %16, 0
  br i1 %17, label %18, label %20

18:                                               ; preds = %15
  %19 = call i32 (ptr, ...) @error(ptr noundef nonnull @.str.3) #7
  br label %56

20:                                               ; preds = %15
  %21 = call zeroext i16 @slurm_get_port(ptr noundef nonnull %2) #7
  %22 = getelementptr inbounds nuw i8, ptr %0, i64 260
  store i16 %21, ptr %22, align 4
  %23 = call i32 @get_log_level() #7
  %24 = icmp sgt i32 %23, 5
  br i1 %24, label %25, label %28

25:                                               ; preds = %20
  %26 = load i16, ptr %22, align 4
  %27 = zext i16 %26 to i32
  call void (i32, ptr, ...) @log_var(i32 noundef 6, ptr noundef nonnull @.str.4, i32 noundef %27) #7
  br label %28

28:                                               ; preds = %20, %25
  call void @llvm.lifetime.start.p0(i64 8, ptr nonnull %3) #7
  call void @llvm.lifetime.start.p0(i64 56, ptr nonnull %4) #7
  %29 = call i32 @pthread_attr_init(ptr noundef nonnull %4) #7
  %.not26 = icmp eq i32 %29, 0
  br i1 %.not26, label %32, label %30

30:                                               ; preds = %28
  %31 = tail call ptr @__errno_location() #8
  store i32 %29, ptr %31, align 4
  call void (ptr, ...) @fatal(ptr noundef nonnull @.str.5) #9
  unreachable

32:                                               ; preds = %28
  %33 = call i32 @pthread_attr_setscope(ptr noundef nonnull %4, i32 noundef 0) #7
  %.not27 = icmp eq i32 %33, 0
  br i1 %.not27, label %37, label %34

34:                                               ; preds = %32
  %35 = tail call ptr @__errno_location() #8
  store i32 %33, ptr %35, align 4
  %36 = call i32 (ptr, ...) @error(ptr noundef nonnull @.str.6) #7
  br label %37

37:                                               ; preds = %34, %32
  %38 = call i32 @pthread_attr_setstacksize(ptr noundef nonnull %4, i64 noundef 1048576) #7
  %.not28 = icmp eq i32 %38, 0
  br i1 %.not28, label %42, label %39

39:                                               ; preds = %37
  %40 = tail call ptr @__errno_location() #8
  store i32 %38, ptr %40, align 4
  %41 = call i32 (ptr, ...) @error(ptr noundef nonnull @.str.7) #7
  br label %42

42:                                               ; preds = %39, %37
  %43 = call i32 @pthread_attr_setdetachstate(ptr noundef nonnull %4, i32 noundef 1) #7
  %.not29 = icmp eq i32 %43, 0
  br i1 %.not29, label %46, label %44

44:                                               ; preds = %42
  %45 = tail call ptr @__errno_location() #8
  store i32 %43, ptr %45, align 4
  call void (ptr, ...) @fatal(ptr noundef nonnull @.str.8, ptr noundef nonnull @__func__.pty_thread_create) #9
  unreachable

46:                                               ; preds = %42
  %47 = call i32 @pthread_create(ptr noundef nonnull %3, ptr noundef nonnull %4, ptr noundef nonnull @_pty_thread, ptr noundef nonnull %0) #7
  %.not30 = icmp eq i32 %47, 0
  br i1 %.not30, label %50, label %48

48:                                               ; preds = %46
  %49 = tail call ptr @__errno_location() #8
  store i32 %47, ptr %49, align 4
  call void (ptr, ...) @fatal(ptr noundef nonnull @.str.9, ptr noundef nonnull @__func__.pty_thread_create) #9
  unreachable

50:                                               ; preds = %46
  %51 = call i32 @pthread_attr_destroy(ptr noundef nonnull %4) #7
  %.not31 = icmp eq i32 %51, 0
  br i1 %.not31, label %55, label %52

52:                                               ; preds = %50
  %53 = tail call ptr @__errno_location() #8
  store i32 %51, ptr %53, align 4
  %54 = call i32 (ptr, ...) @error(ptr noundef nonnull @.str.10) #7
  br label %55

55:                                               ; preds = %52, %50
  call void @llvm.lifetime.end.p0(i64 56, ptr nonnull %4) #7
  call void @llvm.lifetime.end.p0(i64 8, ptr nonnull %3) #7
  br label %56

56:                                               ; preds = %55, %18, %13
  call void @llvm.lifetime.end.p0(i64 128, ptr nonnull %2) #7
  ret void
}